target datalayout = "e-m:e-p270:32:32-p271:32:32-p272:64:64-i64:64-i128:128-f80:128-n8:16:32:64-S128"
target triple = "x86_64-pc-linux-gnu"

%struct.UpVal = type { ptr, i8, i8, %union.anon.4, %union.anon.5 }
%union.anon.4 = type { ptr }
%union.anon.5 = type { %struct.anon.6 }
%struct.anon.6 = type { ptr, ptr }

; Function Attrs: nounwind uwtable
define hidden void @luaF_unlinkupval(ptr noundef %0) #0 {
  %2 = alloca ptr, align 8
  store ptr %0, ptr %2, align 8, !tbaa !23
  %3 = load ptr, ptr %2, align 8, !tbaa !23
  %4 = getelementptr inbounds nuw %struct.UpVal, ptr %3, i32 0, i32 4
  %5 = getelementptr inbounds nuw %struct.anon.6, ptr %4, i32 0, i32 0
  %6 = load ptr, ptr %5, align 8, !tbaa !25
  %7 = load ptr, ptr %2, align 8, !tbaa !23
  %8 = getelementptr inbounds nuw %struct.UpVal, ptr %7, i32 0, i32 4
  %9 = getelementptr inbounds nuw %struct.anon.6, ptr %8, i32 0, i32 1
  %10 = load ptr, ptr %9, align 8, !tbaa !25
  store ptr %6, ptr %10, align 8, !tbaa !23
  %11 = load ptr, ptr %2, align 8, !tbaa !23
  %12 = getelementptr inbounds nuw %struct.UpVal, ptr %11, i32 0, i32 4
  %13 = getelementptr inbounds nuw %struct.anon.6, ptr %12, i32 0, i32 0
  %14 = load ptr, ptr %13, align 8, !tbaa !25
  %15 = icmp ne ptr %14, null
  br i1 %15, label %16, label %27

16:                                               ; preds = %1
  %17 = load ptr, ptr %2, align 8, !tbaa !23
  %18 = getelementptr inbounds nuw %struct.UpVal, ptr %17, i32 0, i32 4
  %19 = getelementptr inbounds nuw %struct.anon.6, ptr %18, i32 0, i32 1
  %20 = load ptr, ptr %19, align 8, !tbaa !25
  %21 = load ptr, ptr %2, align 8, !tbaa !23
  %22 = getelementptr inbounds nuw %struct.UpVal, ptr %21, i32 0, i32 4
  %23 = getelementptr inbounds nuw %struct.anon.6, ptr %22, i32 0, i32 0
  %24 = load ptr, ptr %23, align 8, !tbaa !25
  %25 = getelementptr inbounds nuw %struct.UpVal, ptr %24, i32 0, i32 4
  %26 = getelementptr inbounds nuw %struct.anon.6, ptr %25, i32 0, i32 1
  store ptr %20, ptr %26, align 8, !tbaa !25
  br label %27

27:                                               ; preds = %16, %1
  ret void
}